target datalayout = "e-m:e-p270:32:32-p271:32:32-p272:64:64-i64:64-i128:128-f80:128-n8:16:32:64-S128"
target triple = "x86_64-pc-linux-gnu"

@.str.63 = private unnamed_addr constant [4 x i8] c"mon\00", align 1
@.str.65 = private unnamed_addr constant [5 x i8] c"mday\00", align 1
@parse_iso24_cb.rbimpl_id = internal global i64 0, align 8
@parse_iso24_cb.rbimpl_id.74 = internal global i64 0, align 8

; Function Attrs: inlinehint nounwind sspstrong willreturn memory(read) uwtable
define internal i64 @rb_intern_const(ptr noundef nonnull %0) #2 {
  %2 = alloca ptr, align 8
  %3 = alloca i64, align 8
  store ptr %0, ptr %2, align 8, !tbaa !10
  call void @llvm.lifetime.start.p0(i64 8, ptr %3) #21
  %4 = load ptr, ptr %2, align 8, !tbaa !10
  %5 = call i64 @strlen(ptr noundef %4) #22
  store i64 %5, ptr %3, align 8, !tbaa !6
  %6 = load ptr, ptr %2, align 8, !tbaa !10
  %7 = load i64, ptr %3, align 8, !tbaa !6
  %8 = call i64 @rb_intern2(ptr noundef %6, i64 noundef %7)
  call void @llvm.lifetime.end.p0(i64 8, ptr %3) #21
  ret i64 %8
}

; Function Attrs: inlinehint nounwind sspstrong willreturn memory(none) uwtable
define internal zeroext i1 @RB_NIL_P(i64 noundef %0) #4 {
  %2 = alloca i64, align 8
  store i64 %0, ptr %2, align 8, !tbaa !6
  %3 = load i64, ptr %2, align 8, !tbaa !6
  %4 = icmp eq i64 %3, 4
  ret i1 %4
}

; Function Attrs: inlinehint nounwind sspstrong memory(argmem: readwrite, inaccessiblemem: readwrite) uwtable
define internal i64 @rbimpl_intern_const(ptr noundef nonnull %0, ptr noundef nonnull %1) #7 {
  %3 = alloca ptr, align 8
  %4 = alloca ptr, align 8
  store ptr %0, ptr %3, align 8, !tbaa !20
  store ptr %1, ptr %4, align 8, !tbaa !10
  br label %5

5:                                                ; preds = %10, %2
  %6 = load ptr, ptr %3, align 8, !tbaa !20
  %7 = load i64, ptr %6, align 8, !tbaa !6
  %8 = icmp ne i64 %7, 0
  %9 = xor i1 %8, true
  br i1 %9, label %10, label %14

10:                                               ; preds = %5
  %11 = load ptr, ptr %4, align 8, !tbaa !10
  %12 = call i64 @rb_intern_const(ptr noundef %11) #22
  %13 = load ptr, ptr %3, align 8, !tbaa !20
  store i64 %12, ptr %13, align 8, !tbaa !6
  br label %5, !llvm.loop !35

14:                                               ; preds = %5
  %15 = load ptr, ptr %3, align 8, !tbaa !20
  %16 = load i64, ptr %15, align 8, !tbaa !6
  ret i64 %16
}

; Function Attrs: nounwind sspstrong uwtable
define internal i32 @parse_iso24_cb(i64 noundef %0, i64 noundef %1) #0 {
  %3 = alloca i64, align 8
  %4 = alloca i64, align 8
  %5 = alloca i64, align 8
  %6 = alloca i64, align 8
  %7 = alloca i64, align 8
  %8 = alloca i64, align 8
  store i64 %0, ptr %3, align 8, !tbaa !6
  store i64 %1, ptr %4, align 8, !tbaa !6
  call void @llvm.lifetime.start.p0(i64 8, ptr %5) #21
  call void @llvm.lifetime.start.p0(i64 8, ptr %6) #21
  %9 = load i64, ptr %3, align 8, !tbaa !6
  %10 = call i64 @rb_reg_nth_match(i32 noundef 1, i64 noundef %9)
  store i64 %10, ptr %5, align 8, !tbaa !6
  %11 = load i64, ptr %3, align 8, !tbaa !6
  %12 = call i64 @rb_reg_nth_match(i32 noundef 2, i64 noundef %11)
  store i64 %12, ptr %6, align 8, !tbaa !6
  %13 = load i64, ptr %4, align 8, !tbaa !6
  %14 = call i64 @rbimpl_intern_const(ptr noundef @parse_iso24_cb.rbimpl_id, ptr noundef @.str.63) #25
  store i64 %14, ptr %7, align 8, !tbaa !6
  %15 = load i64, ptr %7, align 8, !tbaa !6
  %16 = call i64 @rb_id2sym(i64 noundef %15)
  %17 = load i64, ptr %5, align 8, !tbaa !6
  %18 = call i64 @rb_str_to_inum(i64 noundef %17, i32 noundef 10, i32 noundef 0)
  %19 = call i64 @rb_hash_aset(i64 noundef %13, i64 noundef %16, i64 noundef %18)
  %20 = load i64, ptr %6, align 8, !tbaa !6
  %21 = call zeroext i1 @RB_NIL_P(i64 noundef %20) #23
  br i1 %21, label %30, label %22

22:                                               ; preds = %2
  %23 = load i64, ptr %4, align 8, !tbaa !6
  %24 = call i64 @rbimpl_intern_const(ptr noundef @parse_iso24_cb.rbimpl_id.74, ptr noundef @.str.65) #25
  store i64 %24, ptr %8, align 8, !tbaa !6
  %25 = load i64, ptr %8, align 8, !tbaa !6
  %26 = call i64 @rb_id2sym(i64 noundef %25)
  %27 = load i64, ptr %6, align 8, !tbaa !6
  %28 = call i64 @rb_str_to_inum(i64 noundef %27, i32 noundef 10, i32 noundef 0)
  %29 = call i64 @rb_hash_aset(i64 noundef %23, i64 noundef %26, i64 noundef %28)
  br label %30

30:                                               ; preds = %22, %2
  call void @llvm.lifetime.end.p0(i64 8, ptr %6) #21
  call void @llvm.lifetime.end.p0(i64 8, ptr %5) #21
  ret i32 1
}