; Function Attrs: nounwind sspstrong uwtable
define internal noundef i32 @parse_iso24_cb(i64 noundef %0, i64 noundef %1) #0 {
  %3 = tail call i64 @rb_reg_nth_match(i32 noundef 1, i64 noundef %0) #13
  %4 = tail call i64 @rb_reg_nth_match(i32 noundef 2, i64 noundef %0) #13
  %.pr.i = load i64, ptr @parse_iso24_cb.rbimpl_id, align 8, !tbaa !6
  %.not4.i = icmp eq i64 %.pr.i, 0
  br i1 %.not4.i, label %.lr.ph.i, label %rbimpl_intern_const.exit

.lr.ph.i:                                         ; preds = %2, %.lr.ph.i
  %5 = tail call i64 @rb_intern2(ptr noundef nonnull @.str.63, i64 noundef 3) #13
  store i64 %5, ptr @parse_iso24_cb.rbimpl_id, align 8, !tbaa !6
  %.not.i = icmp eq i64 %5, 0
  br i1 %.not.i, label %.lr.ph.i, label %rbimpl_intern_const.exit, !llvm.loop !36

rbimpl_intern_const.exit:                         ; preds = %.lr.ph.i, %2
  %.lcssa.i = phi i64 [ %.pr.i, %2 ], [ %5, %.lr.ph.i ]
  %6 = tail call i64 @rb_id2sym(i64 noundef %.lcssa.i) #13
  %7 = tail call i64 @rb_str_to_inum(i64 noundef %3, i32 noundef 10, i32 noundef 0) #13
  %8 = tail call i64 @rb_hash_aset(i64 noundef %1, i64 noundef %6, i64 noundef %7) #13
  %9 = icmp eq i64 %4, 4
  br i1 %9, label %15, label %10

10:                                               ; preds = %rbimpl_intern_const.exit
  %.pr.i9 = load i64, ptr @parse_iso24_cb.rbimpl_id.74, align 8, !tbaa !6
  %.not4.i10 = icmp eq i64 %.pr.i9, 0
  br i1 %.not4.i10, label %.lr.ph.i12, label %rbimpl_intern_const.exit14

.lr.ph.i12:                                       ; preds = %10, %.lr.ph.i12
  %11 = tail call i64 @rb_intern2(ptr noundef nonnull @.str.65, i64 noundef 4) #13
  store i64 %11, ptr @parse_iso24_cb.rbimpl_id.74, align 8, !tbaa !6
  %.not.i13 = icmp eq i64 %11, 0
  br i1 %.not.i13, label %.lr.ph.i12, label %rbimpl_intern_const.exit14, !llvm.loop !36

rbimpl_intern_const.exit14:                       ; preds = %.lr.ph.i12, %10
  %.lcssa.i11 = phi i64 [ %.pr.i9, %10 ], [ %11, %.lr.ph.i12 ]
  %12 = tail call i64 @rb_id2sym(i64 noundef %.lcssa.i11) #13
  %13 = tail call i64 @rb_str_to_inum(i64 noundef %4, i32 noundef 10, i32 noundef 0) #13
  %14 = tail call i64 @rb_hash_aset(i64 noundef %1, i64 noundef %12, i64 noundef %13) #13
  br label %15

15:                                               ; preds = %rbimpl_intern_const.exit14, %rbimpl_intern_const.exit
  ret i32 1
}